; Function Attrs: mustprogress uwtable
define void @_ZN7xgboost11EllpackPageC2EPKNS_7ContextEPNS_7DMatrixERKNS_10BatchParamE(ptr noundef nonnull align 8 dereferenceable(8) initializes((0, 8)) %0, ptr readnone captures(none) %1, ptr readnone captures(none) %2, ptr nonnull readnone align 8 captures(none) %3) unnamed_addr #4 align 2 personality ptr @__gxx_personality_v0 {
  %5 = alloca %"class.dmlc::LogMessageFatal", align 1
  store ptr null, ptr %0, align 8, !tbaa !3
  call void @llvm.lifetime.start.p0(i64 1, ptr nonnull %5) #12
  %6 = invoke noundef nonnull align 8 dereferenceable(376) ptr @_ZN4dmlc15LogMessageFatal8GetEntryEv(ptr noundef nonnull align 1 dereferenceable(1) %5)
          to label %.noexc unwind label %10

.noexc:                                           ; preds = %4
  invoke void @_ZN4dmlc15LogMessageFatal5Entry4InitEPKci(ptr noundef nonnull align 8 dereferenceable(376) %6, ptr noundef nonnull @.str, i32 noundef 26)
          to label %_ZN4dmlc15LogMessageFatalC2EPKci.exit unwind label %10

_ZN4dmlc15LogMessageFatalC2EPKci.exit:            ; preds = %.noexc
  %7 = invoke noundef nonnull align 8 dereferenceable(376) ptr @_ZN4dmlc15LogMessageFatal8GetEntryEv(ptr noundef nonnull align 1 dereferenceable(1) %5)
          to label %_ZN4dmlc15LogMessageFatal6streamB5cxx11Ev.exit unwind label %12

_ZN4dmlc15LogMessageFatal6streamB5cxx11Ev.exit:   ; preds = %_ZN4dmlc15LogMessageFatalC2EPKci.exit
  %8 = invoke noundef nonnull align 8 dereferenceable(8) ptr @_ZSt16__ostream_insertIcSt11char_traitsIcEERSt13basic_ostreamIT_T0_ES6_PKS3_l(ptr noundef nonnull align 8 dereferenceable(8) %7, ptr noundef nonnull @.str.1, i64 noundef 77)
          to label %_ZStlsISt11char_traitsIcEERSt13basic_ostreamIcT_ES5_PKc.exit unwind label %12

_ZStlsISt11char_traitsIcEERSt13basic_ostreamIcT_ES5_PKc.exit: ; preds = %_ZN4dmlc15LogMessageFatal6streamB5cxx11Ev.exit
  invoke void @_ZN4dmlc15LogMessageFatalD2Ev(ptr noundef nonnull align 1 dereferenceable(1) %5)
          to label %9 unwind label %10

9:                                                ; preds = %_ZStlsISt11char_traitsIcEERSt13basic_ostreamIcT_ES5_PKc.exit
  call void @llvm.lifetime.end.p0(i64 1, ptr nonnull %5) #12
  ret void

10:                                               ; preds = %.noexc, %4, %_ZStlsISt11char_traitsIcEERSt13basic_ostreamIcT_ES5_PKc.exit
  %11 = landingpad { ptr, i32 }
          cleanup
  br label %14

12:                                               ; preds = %_ZN4dmlc15LogMessageFatal6streamB5cxx11Ev.exit, %_ZN4dmlc15LogMessageFatalC2EPKci.exit
  %13 = landingpad { ptr, i32 }
          cleanup
  invoke void @_ZN4dmlc15LogMessageFatalD2Ev(ptr noundef nonnull align 1 dereferenceable(1) %5)
          to label %14 unwind label %15

14:                                               ; preds = %12, %10
  %.pn = phi { ptr, i32 } [ %11, %10 ], [ %13, %12 ]
  call void @llvm.lifetime.end.p0(i64 1, ptr nonnull %5) #12
  call void @_ZNSt10unique_ptrIN7xgboost15EllpackPageImplESt14default_deleteIS1_EED2Ev(ptr noundef nonnull align 8 dereferenceable(8) %0) #12
  resume { ptr, i32 } %.pn

15:                                               ; preds = %12
  %16 = landingpad { ptr, i32 }
          catch ptr null
  %17 = extractvalue { ptr, i32 } %16, 0
  call void @__clang_call_terminate(ptr %17) #29
  unreachable
}